; Function Attrs: mustprogress nounwind uwtable
define hidden void @_ZN7ZUnload7prepareEv(ptr nocapture noundef nonnull readnone align 8 dereferenceable(8) %0) local_unnamed_addr #2 align 2 {
  %2 = load i8, ptr @ClassUnloading, align 1
  %3 = trunc i8 %2 to i1
  br i1 %3, label %4, label %5

4:                                                ; preds = %1
  tail call void @_ZN9CodeCache25increment_unloading_cycleEv() #8
  tail call void @_ZN17DependencyContext14cleaning_startEv() #8
  br label %5

5:                                                ; preds = %1, %4
  ret void
}